target datalayout = "e-m:e-p270:32:32-p271:32:32-p272:64:64-i64:64-i128:128-f80:128-n8:16:32:64-S128"
target triple = "x86_64-pc-linux-gnu"

%struct._cmsStage_struct = type { ptr, i32, i32, i32, i32, ptr, ptr, ptr, ptr, ptr }
%struct._cmsStageMatrixData = type { ptr, ptr }

; Function Attrs: nounwind uwtable
define internal ptr @MatrixElemDup(ptr noundef %0) #0 {
  %2 = alloca ptr, align 8
  %3 = alloca ptr, align 8
  %4 = alloca ptr, align 8
  %5 = alloca ptr, align 8
  %6 = alloca i32, align 4
  store ptr %0, ptr %3, align 8
  %7 = load ptr, ptr %3, align 8
  %8 = getelementptr inbounds %struct._cmsStage_struct, ptr %7, i32 0, i32 8
  %9 = load ptr, ptr %8, align 8
  store ptr %9, ptr %4, align 8
  %10 = load ptr, ptr %3, align 8
  %11 = getelementptr inbounds %struct._cmsStage_struct, ptr %10, i32 0, i32 0
  %12 = load ptr, ptr %11, align 8
  %13 = call ptr @_cmsMallocZero(ptr noundef %12, i32 noundef 16)
  store ptr %13, ptr %5, align 8
  %14 = load ptr, ptr %5, align 8
  %15 = icmp eq ptr %14, null
  br i1 %15, label %16, label %17

16:                                               ; preds = %1
  store ptr null, ptr %2, align 8
  br label %60

17:                                               ; preds = %1
  %18 = load ptr, ptr %3, align 8
  %19 = getelementptr inbounds %struct._cmsStage_struct, ptr %18, i32 0, i32 3
  %20 = load i32, ptr %19, align 8
  %21 = load ptr, ptr %3, align 8
  %22 = getelementptr inbounds %struct._cmsStage_struct, ptr %21, i32 0, i32 4
  %23 = load i32, ptr %22, align 4
  %24 = mul i32 %20, %23
  store i32 %24, ptr %6, align 4
  %25 = load ptr, ptr %3, align 8
  %26 = getelementptr inbounds %struct._cmsStage_struct, ptr %25, i32 0, i32 0
  %27 = load ptr, ptr %26, align 8
  %28 = load ptr, ptr %4, align 8
  %29 = getelementptr inbounds %struct._cmsStageMatrixData, ptr %28, i32 0, i32 0
  %30 = load ptr, ptr %29, align 8
  %31 = load i32, ptr %6, align 4
  %32 = zext i32 %31 to i64
  %33 = mul i64 %32, 8
  %34 = trunc i64 %33 to i32
  %35 = call ptr @_cmsDupMem(ptr noundef %27, ptr noundef %30, i32 noundef %34)
  %36 = load ptr, ptr %5, align 8
  %37 = getelementptr inbounds %struct._cmsStageMatrixData, ptr %36, i32 0, i32 0
  store ptr %35, ptr %37, align 8
  %38 = load ptr, ptr %4, align 8
  %39 = getelementptr inbounds %struct._cmsStageMatrixData, ptr %38, i32 0, i32 1
  %40 = load ptr, ptr %39, align 8
  %41 = icmp ne ptr %40, null
  br i1 %41, label %42, label %58

42:                                               ; preds = %17
  %43 = load ptr, ptr %3, align 8
  %44 = getelementptr inbounds %struct._cmsStage_struct, ptr %43, i32 0, i32 0
  %45 = load ptr, ptr %44, align 8
  %46 = load ptr, ptr %4, align 8
  %47 = getelementptr inbounds %struct._cmsStageMatrixData, ptr %46, i32 0, i32 1
  %48 = load ptr, ptr %47, align 8
  %49 = load ptr, ptr %3, align 8
  %50 = getelementptr inbounds %struct._cmsStage_struct, ptr %49, i32 0, i32 4
  %51 = load i32, ptr %50, align 4
  %52 = zext i32 %51 to i64
  %53 = mul i64 %52, 8
  %54 = trunc i64 %53 to i32
  %55 = call ptr @_cmsDupMem(ptr noundef %45, ptr noundef %48, i32 noundef %54)
  %56 = load ptr, ptr %5, align 8
  %57 = getelementptr inbounds %struct._cmsStageMatrixData, ptr %56, i32 0, i32 1
  store ptr %55, ptr %57, align 8
  br label %58

58:                                               ; preds = %42, %17
  %59 = load ptr, ptr %5, align 8
  store ptr %59, ptr %2, align 8
  br label %60

60:                                               ; preds = %58, %16
  %61 = load ptr, ptr %2, align 8
  ret ptr %61
}