; Function Attrs: nounwind uwtable
define internal ptr @MatrixElemDup(ptr nocapture noundef readonly %0) #0 {
  %2 = getelementptr inbounds i8, ptr %0, i64 48
  %3 = load ptr, ptr %2, align 8
  %4 = load ptr, ptr %0, align 8
  %5 = tail call ptr @_cmsMallocZero(ptr noundef %4, i32 noundef 16) #18
  %6 = icmp eq ptr %5, null
  br i1 %6, label %25, label %7

7:                                                ; preds = %1
  %8 = getelementptr inbounds i8, ptr %0, i64 16
  %9 = load i32, ptr %8, align 8
  %10 = getelementptr inbounds i8, ptr %0, i64 20
  %11 = load i32, ptr %10, align 4
  %12 = load ptr, ptr %0, align 8
  %13 = load ptr, ptr %3, align 8
  %14 = shl i32 %9, 3
  %15 = mul i32 %14, %11
  %16 = tail call ptr @_cmsDupMem(ptr noundef %12, ptr noundef %13, i32 noundef %15) #18
  store ptr %16, ptr %5, align 8
  %17 = getelementptr inbounds i8, ptr %3, i64 8
  %18 = load ptr, ptr %17, align 8
  %.not = icmp eq ptr %18, null
  br i1 %.not, label %25, label %19

19:                                               ; preds = %7
  %20 = load ptr, ptr %0, align 8
  %21 = load i32, ptr %10, align 4
  %22 = shl i32 %21, 3
  %23 = tail call ptr @_cmsDupMem(ptr noundef %20, ptr noundef nonnull %18, i32 noundef %22) #18
  %24 = getelementptr inbounds i8, ptr %5, i64 8
  store ptr %23, ptr %24, align 8
  br label %25

25:                                               ; preds = %7, %19, %1
  ret ptr %5
}